target datalayout = "e-m:e-p270:32:32-p271:32:32-p272:64:64-i64:64-i128:128-f80:128-n8:16:32:64-S128"
target triple = "x86_64-pc-linux-gnu"

%"class.icu_77::double_conversion::Bignum" = type { i16, i16, [128 x i32] }

; Function Attrs: mustprogress nounwind uwtable
define noundef nonnull align 4 dereferenceable(4) ptr @_ZN6icu_7717double_conversion6Bignum8RawBigitEi(ptr noundef nonnull align 4 dereferenceable(516) %0, i32 noundef %1) #0 align 2 {
  %3 = alloca ptr, align 8
  %4 = alloca i32, align 4
  store ptr %0, ptr %3, align 8, !tbaa !3
  store i32 %1, ptr %4, align 4, !tbaa !8
  %5 = load ptr, ptr %3, align 8
  %6 = getelementptr inbounds nuw %"class.icu_77::double_conversion::Bignum", ptr %5, i32 0, i32 2
  %7 = load i32, ptr %4, align 4, !tbaa !8
  %8 = sext i32 %7 to i64
  %9 = getelementptr inbounds [128 x i32], ptr %6, i64 0, i64 %8
  ret ptr %9
}

; Function Attrs: mustprogress nounwind uwtable
define linkonce_odr void @_ZN6icu_7717double_conversion6Bignum4ZeroEv(ptr noundef nonnull align 4 dereferenceable(516) %0) #0 comdat align 2 {
  %2 = alloca ptr, align 8
  store ptr %0, ptr %2, align 8, !tbaa !3
  %3 = load ptr, ptr %2, align 8
  %4 = getelementptr inbounds nuw %"class.icu_77::double_conversion::Bignum", ptr %3, i32 0, i32 0
  store i16 0, ptr %4, align 4, !tbaa !12
  %5 = getelementptr inbounds nuw %"class.icu_77::double_conversion::Bignum", ptr %3, i32 0, i32 1
  store i16 0, ptr %5, align 2, !tbaa !14
  ret void
}

; Function Attrs: mustprogress uwtable
define void @_ZN6icu_7717double_conversion6Bignum12AssignUInt16Et(ptr noundef nonnull align 4 dereferenceable(516) %0, i16 noundef zeroext %1) #1 align 2 {
  %3 = alloca ptr, align 8
  %4 = alloca i16, align 2
  store ptr %0, ptr %3, align 8, !tbaa !3
  store i16 %1, ptr %4, align 2, !tbaa !10
  %5 = load ptr, ptr %3, align 8
  call void @_ZN6icu_7717double_conversion6Bignum4ZeroEv(ptr noundef nonnull align 4 dereferenceable(516) %5)
  %6 = load i16, ptr %4, align 2, !tbaa !10
  %7 = zext i16 %6 to i32
  %8 = icmp sgt i32 %7, 0
  br i1 %8, label %9, label %14

9:                                                ; preds = %2
  %10 = load i16, ptr %4, align 2, !tbaa !10
  %11 = zext i16 %10 to i32
  %12 = call noundef nonnull align 4 dereferenceable(4) ptr @_ZN6icu_7717double_conversion6Bignum8RawBigitEi(ptr noundef nonnull align 4 dereferenceable(516) %5, i32 noundef 0)
  store i32 %11, ptr %12, align 4, !tbaa !8
  %13 = getelementptr inbounds nuw %"class.icu_77::double_conversion::Bignum", ptr %5, i32 0, i32 0
  store i16 1, ptr %13, align 4, !tbaa !12
  br label %14

14:                                               ; preds = %9, %2
  ret void
}