; Function Attrs: mustprogress nofree norecurse nosync nounwind willreturn memory(argmem: write) uwtable
define void @_ZN6icu_7717double_conversion6Bignum12AssignUInt16Et(ptr noundef nonnull writeonly align 4 captures(none) dereferenceable(516) initializes((0, 4)) %0, i16 noundef zeroext %1) local_unnamed_addr #1 align 2 {
  store i16 0, ptr %0, align 4, !tbaa !3
  %3 = getelementptr inbounds nuw i8, ptr %0, i64 2
  store i16 0, ptr %3, align 2, !tbaa !8
  %.not = icmp eq i16 %1, 0
  br i1 %.not, label %7, label %4

4:                                                ; preds = %2
  %5 = zext i16 %1 to i32
  %6 = getelementptr inbounds nuw i8, ptr %0, i64 4
  store i32 %5, ptr %6, align 4, !tbaa !9
  store i16 1, ptr %0, align 4, !tbaa !3
  br label %7

7:                                                ; preds = %4, %2
  ret void
}